(dp0
S'slots'
p1
(lp2
S'1:30'
p3
aS'1:45'
p4
aS'2:00'
p5
aS'2:15'
p6
aS'2:30'
p7
aS'2:45'
p8
aS'3:00'
p9
aS'3:15'
p10
aS'3:30'
p11
aS'3:45'
p12
aS'4:00'
p13
aS'4:15'
p14
aS'4:30'
p15
aS'4:45'
p16
aS'5:00'
p17
aS'5:15'
p18
aS'5:30'
p19
aS'5:45'
p20
aS'6:00'
p21
aS'6:15'
p22
asS'fac_avail'
p23
(dp24
S'mibailey'
p25
(dp26
S'5:30'
p27
I0
sS'2:45'
p28
I0
sS'6:00'
p29
I0
sS'4:45'
p30
I0
sS'5:45'
p31
I0
sS'3:45'
p32
I0
sS'2:00'
p33
I0
sS'5:00'
p34
I0
sS'5:15'
p35
I0
sS'1:30'
p36
I0
sS'2:15'
p37
I0
sS'2:30'
p38
I0
sS'4:00'
p39
I0
sS'4:30'
p40
I0
sS'4:15'
p41
I0
sS'3:15'
p42
I0
sS'3:30'
p43
I0
sS'1:45'
p44
I0
sS'6:15'
p45
I0
sS'3:00'
p46
I0
ssS'laird'
p47
(dp48
g19
I0
sg8
I1
sg21
I0
sg16
I0
sg20
I0
sg12
I1
sg5
I0
sg17
I0
sg18
I0
sg3
I1
sg6
I0
sg7
I1
sg13
I1
sg15
I0
sg14
I1
sg10
I1
sg11
I1
sg4
I1
sg22
I0
sg9
I1
ssS'profmars'
p49
(dp50
g19
I1
sg8
I0
sg21
I0
sg16
I1
sg20
I1
sg12
I1
sg5
I1
sg17
I1
sg18
I1
sg3
I1
sg6
I1
sg7
I0
sg13
I1
sg15
I1
sg14
I1
sg10
I1
sg11
I1
sg4
I1
sg22
I0
sg9
I1
ssS'gessl'
p51
(dp52
g19
I0
sg8
I0
sg21
I0
sg16
I1
sg20
I0
sg12
I1
sg5
I0
sg17
I0
sg18
I0
sg3
I0
sg6
I0
sg7
I0
sg13
I1
sg15
I1
sg14
I1
sg10
I0
sg11
I1
sg4
I0
sg22
I0
sg9
I0
ssS'bnoble'
p53
(dp54
g27
I0
sg28
I0
sg29
I0
sg30
I0
sg31
I0
sg32
I0
sg33
I0
sg34
I0
sg35
I0
sg36
I0
sg37
I0
sg38
I0
sg39
I0
sg40
I0
sg41
I0
sg42
I0
sg43
I0
sg44
I0
sg45
I0
sg46
I0
ssS'marios'
p55
(dp56
g19
I0
sg8
I0
sg21
I0
sg16
I0
sg20
I0
sg12
I0
sg5
I1
sg17
I0
sg18
I0
sg3
I0
sg6
I1
sg7
I0
sg13
I0
sg15
I0
sg14
I0
sg10
I1
sg11
I0
sg4
I0
sg22
I0
sg9
I1
ssS'jflinn'
p57
(dp58
g19
I0
sg8
I1
sg21
I0
sg16
I1
sg20
I0
sg12
I1
sg5
I1
sg17
I1
sg18
I1
sg3
I1
sg6
I1
sg7
I1
sg13
I1
sg15
I1
sg14
I1
sg10
I1
sg11
I1
sg4
I1
sg22
I0
sg9
I1
ssS'baveja'
p59
(dp60
g19
I0
sg8
I1
sg21
I0
sg16
I1
sg20
I0
sg12
I1
sg5
I0
sg17
I1
sg18
I1
sg3
I1
sg6
I0
sg7
I1
sg13
I1
sg15
I1
sg14
I1
sg10
I1
sg11
I1
sg4
I1
sg22
I0
sg9
I1
ssS'farnam'
p61
(dp62
g27
I0
sg28
I0
sg29
I0
sg30
I0
sg31
I0
sg32
I0
sg33
I0
sg34
I0
sg35
I0
sg36
I0
sg37
I0
sg38
I0
sg39
I0
sg40
I0
sg41
I0
sg42
I0
sg43
I0
sg44
I0
sg45
I0
sg46
I0
ssS'karem'
p63
(dp64
g27
I0
sg28
I0
sg29
I0
sg30
I0
sg31
I0
sg32
I0
sg33
I0
sg34
I0
sg35
I0
sg36
I0
sg37
I0
sg38
I0
sg39
I0
sg40
I0
sg41
I0
sg42
I0
sg43
I0
sg44
I0
sg45
I0
sg46
I0
ssS'zmao'
p65
(dp66
g19
I0
sg8
I1
sg21
I0
sg16
I1
sg20
I0
sg12
I0
sg5
I1
sg17
I0
sg18
I0
sg3
I1
sg6
I1
sg7
I1
sg13
I1
sg15
I1
sg14
I1
sg10
I0
sg11
I0
sg4
I1
sg22
I0
sg9
I0
ssS'rdreslin'
p67
(dp68
g27
I0
sg28
I0
sg29
I0
sg30
I0
sg31
I0
sg32
I0
sg33
I0
sg34
I0
sg35
I0
sg36
I0
sg37
I0
sg38
I0
sg39
I0
sg40
I0
sg41
I0
sg42
I0
sg43
I0
sg44
I0
sg45
I0
sg46
I0
ssS'honglak'
p69
(dp70
g19
I0
sg8
I1
sg21
I0
sg16
I1
sg20
I0
sg12
I1
sg5
I0
sg17
I1
sg18
I1
sg3
I1
sg6
I0
sg7
I1
sg13
I1
sg15
I1
sg14
I1
sg10
I0
sg11
I1
sg4
I1
sg22
I0
sg9
I0
ssS'kieras'
p71
(dp72
g19
I0
sg8
I0
sg21
I0
sg16
I0
sg20
I0
sg12
I0
sg5
I0
sg17
I0
sg18
I0
sg3
I0
sg6
I0
sg7
I0
sg13
I0
sg15
I0
sg14
I0
sg10
I0
sg11
I0
sg4
I0
sg22
I0
sg9
I0
ssS'soloway'
p73
(dp74
g19
I0
sg8
I1
sg21
I0
sg16
I0
sg20
I0
sg12
I0
sg5
I0
sg17
I0
sg18
I0
sg3
I1
sg6
I0
sg7
I1
sg13
I0
sg15
I0
sg14
I0
sg10
I0
sg11
I0
sg4
I1
sg22
I0
sg9
I0
ssS'jiadeng'
p75
(dp76
g27
I0
sg28
I0
sg29
I0
sg30
I0
sg31
I0
sg32
I0
sg33
I0
sg34
I0
sg35
I0
sg36
I0
sg37
I0
sg38
I0
sg39
I0
sg40
I0
sg41
I0
sg42
I0
sg43
I0
sg44
I0
sg45
I0
sg46
I0
ssS'sugih'
p77
(dp78
g19
I1
sg8
I1
sg21
I1
sg16
I0
sg20
I1
sg12
I1
sg5
I1
sg17
I0
sg18
I0
sg3
I1
sg6
I1
sg7
I1
sg13
I0
sg15
I0
sg14
I0
sg10
I1
sg11
I1
sg4
I1
sg22
I1
sg9
I1
ssS'mazum'
p79
(dp80
g27
I0
sg28
I0
sg29
I0
sg30
I0
sg31
I0
sg32
I0
sg33
I0
sg34
I0
sg35
I0
sg36
I0
sg37
I0
sg38
I0
sg39
I0
sg40
I0
sg41
I0
sg42
I0
sg43
I0
sg44
I0
sg45
I0
sg46
I0
ssS'stephane'
p81
(dp82
g27
I0
sg28
I0
sg29
I0
sg30
I0
sg31
I0
sg32
I0
sg33
I0
sg34
I0
sg35
I0
sg36
I0
sg37
I0
sg38
I0
sg39
I0
sg40
I0
sg41
I0
sg42
I0
sg43
I0
sg44
I0
sg45
I0
sg46
I0
ssS'mihalcea'
p83
(dp84
g19
I0
sg8
I1
sg21
I0
sg16
I1
sg20
I0
sg12
I0
sg5
I1
sg17
I1
sg18
I1
sg3
I0
sg6
I1
sg7
I1
sg13
I1
sg15
I1
sg14
I1
sg10
I0
sg11
I0
sg4
I0
sg22
I0
sg9
I0
ssS'jag'
p85
(dp86
g19
I0
sg8
I0
sg21
I0
sg16
I0
sg20
I0
sg12
I0
sg5
I0
sg17
I0
sg18
I0
sg3
I0
sg6
I0
sg7
I0
sg13
I0
sg15
I0
sg14
I0
sg10
I0
sg11
I0
sg4
I0
sg22
I0
sg9
I0
ssS'lingjia'
p87
(dp88
g19
I1
sg8
I0
sg21
I1
sg16
I1
sg20
I1
sg12
I1
sg5
I1
sg17
I1
sg18
I1
sg3
I1
sg6
I1
sg7
I0
sg13
I1
sg15
I1
sg14
I1
sg10
I1
sg11
I1
sg4
I1
sg22
I1
sg9
I1
ssS'teneket'
p89
(dp90
g27
I0
sg28
I0
sg29
I0
sg30
I0
sg31
I0
sg32
I0
sg33
I0
sg34
I0
sg35
I0
sg36
I0
sg37
I0
sg38
I0
sg39
I0
sg40
I0
sg41
I0
sg42
I0
sg43
I0
sg44
I0
sg45
I0
sg46
I0
ssS'emilykmp'
p91
(dp92
g19
I0
sg8
I1
sg21
I0
sg16
I1
sg20
I0
sg12
I1
sg5
I0
sg17
I1
sg18
I1
sg3
I0
sg6
I0
sg7
I1
sg13
I1
sg15
I1
sg14
I1
sg10
I1
sg11
I1
sg4
I0
sg22
I0
sg9
I1
ssS'jhalderm'
p93
(dp94
g19
I1
sg8
I0
sg21
I1
sg16
I1
sg20
I1
sg12
I1
sg5
I0
sg17
I1
sg18
I1
sg3
I0
sg6
I0
sg7
I0
sg13
I1
sg15
I1
sg14
I1
sg10
I0
sg11
I1
sg4
I0
sg22
I1
sg9
I0
ssS'pettie'
p95
(dp96
g27
I0
sg28
I0
sg29
I0
sg30
I0
sg31
I0
sg32
I0
sg33
I0
sg34
I0
sg35
I0
sg36
I0
sg37
I0
sg38
I0
sg39
I0
sg40
I0
sg41
I0
sg42
I0
sg43
I0
sg44
I0
sg45
I0
sg46
I0
ssS'dickrp'
p97
(dp98
g27
I0
sg28
I0
sg29
I0
sg30
I0
sg31
I0
sg32
I0
sg33
I0
sg34
I0
sg35
I0
sg36
I0
sg37
I0
sg38
I0
sg39
I0
sg40
I0
sg41
I0
sg42
I0
sg43
I0
sg44
I0
sg45
I0
sg46
I0
ssS'hero'
p99
(dp100
g27
I0
sg28
I0
sg29
I0
sg30
I0
sg31
I0
sg32
I0
sg33
I0
sg34
I0
sg35
I0
sg36
I0
sg37
I0
sg38
I0
sg39
I0
sg40
I0
sg41
I0
sg42
I0
sg43
I0
sg44
I0
sg45
I0
sg46
I0
ssS'valeria'
p101
(dp102
g19
I0
sg8
I0
sg21
I0
sg16
I0
sg20
I0
sg12
I0
sg5
I0
sg17
I0
sg18
I0
sg3
I0
sg6
I0
sg7
I0
sg13
I0
sg15
I0
sg14
I0
sg10
I0
sg11
I0
sg4
I0
sg22
I0
sg9
I0
ssS'schoeneb'
p103
(dp104
g19
I0
sg8
I1
sg21
I0
sg16
I1
sg20
I0
sg12
I1
sg5
I1
sg17
I0
sg18
I0
sg3
I0
sg6
I1
sg7
I1
sg13
I1
sg15
I1
sg14
I1
sg10
I1
sg11
I1
sg4
I0
sg22
I0
sg9
I1
ssS'jhayes'
p105
(dp106
g19
I0
sg8
I0
sg21
I0
sg16
I1
sg20
I0
sg12
I1
sg5
I0
sg17
I1
sg18
I1
sg3
I0
sg6
I0
sg7
I0
sg13
I1
sg15
I1
sg14
I1
sg10
I1
sg11
I1
sg4
I0
sg22
I0
sg9
I1
ssS'nsatish'
p107
(dp108
g19
I0
sg8
I0
sg21
I0
sg16
I0
sg20
I0
sg12
I1
sg5
I1
sg17
I0
sg18
I0
sg3
I1
sg6
I1
sg7
I0
sg13
I0
sg15
I0
sg14
I0
sg10
I1
sg11
I1
sg4
I1
sg22
I0
sg9
I1
ssS'kgshin'
p109
(dp110
g19
I0
sg8
I0
sg21
I0
sg16
I1
sg20
I0
sg12
I1
sg5
I0
sg17
I0
sg18
I0
sg3
I0
sg6
I0
sg7
I0
sg13
I1
sg15
I1
sg14
I1
sg10
I1
sg11
I1
sg4
I0
sg22
I0
sg9
I1
ssS'blaauw'
p111
(dp112
g27
I0
sg28
I0
sg29
I0
sg30
I0
sg31
I0
sg32
I0
sg33
I0
sg34
I0
sg35
I0
sg36
I0
sg37
I0
sg38
I0
sg39
I0
sg40
I0
sg41
I0
sg42
I0
sg43
I0
sg44
I0
sg45
I0
sg46
I0
ssS'jabernet'
p113
(dp114
g19
I1
sg8
I0
sg21
I1
sg16
I1
sg20
I1
sg12
I0
sg5
I0
sg17
I1
sg18
I1
sg3
I0
sg6
I0
sg7
I0
sg13
I1
sg15
I1
sg14
I1
sg10
I0
sg11
I0
sg4
I0
sg22
I1
sg9
I0
ssS'qstout'
p115
(dp116
g19
I1
sg8
I1
sg21
I1
sg16
I1
sg20
I1
sg12
I1
sg5
I0
sg17
I0
sg18
I0
sg3
I0
sg6
I0
sg7
I1
sg13
I1
sg15
I1
sg14
I1
sg10
I1
sg11
I1
sg4
I0
sg22
I1
sg9
I1
ssS'kevinfu'
p117
(dp118
g19
I0
sg8
I1
sg21
I0
sg16
I0
sg20
I0
sg12
I1
sg5
I1
sg17
I0
sg18
I0
sg3
I1
sg6
I1
sg7
I1
sg13
I1
sg15
I0
sg14
I1
sg10
I1
sg11
I1
sg4
I1
sg22
I0
sg9
I1
ssS'martinjs'
p119
(dp120
g19
I0
sg8
I1
sg21
I0
sg16
I1
sg20
I0
sg12
I0
sg5
I1
sg17
I1
sg18
I1
sg3
I0
sg6
I1
sg7
I1
sg13
I0
sg15
I1
sg14
I0
sg10
I1
sg11
I0
sg4
I0
sg22
I0
sg9
I1
ssS'aprakash'
p121
(dp122
g19
I1
sg8
I0
sg21
I1
sg16
I0
sg20
I1
sg12
I0
sg5
I0
sg17
I1
sg18
I1
sg3
I0
sg6
I0
sg7
I0
sg13
I0
sg15
I0
sg14
I0
sg10
I0
sg11
I0
sg4
I0
sg22
I1
sg9
I0
ssS'ebolson'
p123
(dp124
g19
I1
sg8
I1
sg21
I1
sg16
I0
sg20
I1
sg12
I0
sg5
I1
sg17
I1
sg18
I1
sg3
I0
sg6
I1
sg7
I1
sg13
I0
sg15
I0
sg14
I0
sg10
I1
sg11
I0
sg4
I0
sg22
I1
sg9
I1
ssS'michjc'
p125
(dp126
g19
I0
sg8
I1
sg21
I0
sg16
I0
sg20
I0
sg12
I1
sg5
I0
sg17
I0
sg18
I0
sg3
I0
sg6
I0
sg7
I1
sg13
I0
sg15
I0
sg14
I0
sg10
I1
sg11
I1
sg4
I0
sg22
I0
sg9
I1
ssS'mozafari'
p127
(dp128
g19
I0
sg8
I0
sg21
I0
sg16
I0
sg20
I0
sg12
I0
sg5
I0
sg17
I0
sg18
I0
sg3
I0
sg6
I0
sg7
I0
sg13
I0
sg15
I0
sg14
I0
sg10
I0
sg11
I0
sg4
I0
sg22
I0
sg9
I0
ssS'kjc'
p129
(dp130
g19
I0
sg8
I1
sg21
I0
sg16
I0
sg20
I0
sg12
I1
sg5
I1
sg17
I0
sg18
I0
sg3
I0
sg6
I1
sg7
I1
sg13
I0
sg15
I0
sg14
I0
sg10
I1
sg11
I1
sg4
I0
sg22
I0
sg9
I1
ssS'zhs'
p131
(dp132
g27
I0
sg28
I0
sg29
I0
sg30
I0
sg31
I0
sg32
I0
sg33
I0
sg34
I0
sg35
I0
sg36
I0
sg37
I0
sg38
I0
sg39
I0
sg40
I0
sg41
I0
sg42
I0
sg43
I0
sg44
I0
sg45
I0
sg46
I0
ssS'pmchen'
p133
(dp134
g19
I1
sg8
I0
sg21
I1
sg16
I1
sg20
I1
sg12
I0
sg5
I0
sg17
I1
sg18
I1
sg3
I0
sg6
I0
sg7
I0
sg13
I0
sg15
I1
sg14
I0
sg10
I0
sg11
I0
sg4
I0
sg22
I1
sg9
I0
ssS'durfee'
p135
(dp136
g19
I1
sg8
I1
sg21
I0
sg16
I1
sg20
I1
sg12
I0
sg5
I0
sg17
I1
sg18
I1
sg3
I1
sg6
I0
sg7
I1
sg13
I0
sg15
I1
sg14
I0
sg10
I0
sg11
I0
sg4
I1
sg22
I0
sg9
I0
ssS'prabal'
p137
(dp138
g19
I0
sg8
I0
sg21
I0
sg16
I0
sg20
I0
sg12
I0
sg5
I0
sg17
I0
sg18
I0
sg3
I0
sg6
I0
sg7
I0
sg13
I0
sg15
I0
sg14
I0
sg10
I0
sg11
I0
sg4
I0
sg22
I0
sg9
I0
ssS'austin'
p139
(dp140
g19
I0
sg8
I0
sg21
I0
sg16
I0
sg20
I0
sg12
I0
sg5
I0
sg17
I0
sg18
I0
sg3
I0
sg6
I0
sg7
I0
sg13
I0
sg15
I0
sg14
I0
sg10
I0
sg11
I0
sg4
I0
sg22
I0
sg9
I0
ssS'kuipers'
p141
(dp142
g19
I0
sg8
I1
sg21
I0
sg16
I0
sg20
I0
sg12
I0
sg5
I0
sg17
I0
sg18
I0
sg3
I1
sg6
I0
sg7
I1
sg13
I0
sg15
I0
sg14
I0
sg10
I0
sg11
I0
sg4
I1
sg22
I0
sg9
I0
ssS'twenisch'
p143
(dp144
g27
I0
sg28
I0
sg29
I0
sg30
I0
sg31
I0
sg32
I0
sg33
I0
sg34
I0
sg35
I0
sg36
I0
sg37
I0
sg38
I0
sg39
I0
sg40
I0
sg41
I0
sg42
I0
sg43
I0
sg44
I0
sg45
I0
sg46
I0
ssS'mingyan'
p145
(dp146
g27
I0
sg28
I0
sg29
I0
sg30
I0
sg31
I0
sg32
I0
sg33
I0
sg34
I0
sg35
I0
sg36
I0
sg37
I0
sg38
I0
sg39
I0
sg40
I0
sg41
I0
sg42
I0
sg43
I0
sg44
I0
sg45
I0
sg46
I0
ssS'ghw'
p147
(dp148
g19
I0
sg8
I1
sg21
I0
sg16
I0
sg20
I0
sg12
I0
sg5
I0
sg17
I0
sg18
I0
sg3
I1
sg6
I0
sg7
I1
sg13
I0
sg15
I0
sg14
I0
sg10
I0
sg11
I0
sg4
I1
sg22
I0
sg9
I0
ssS'ackerm'
p149
(dp150
g27
I0
sg28
I0
sg29
I0
sg30
I0
sg31
I0
sg32
I0
sg33
I0
sg34
I0
sg35
I0
sg36
I0
sg37
I0
sg38
I0
sg39
I0
sg40
I0
sg41
I0
sg42
I0
sg43
I0
sg44
I0
sg45
I0
sg46
I0
ssS'imarkov'
p151
(dp152
g27
I0
sg28
I0
sg29
I0
sg30
I0
sg31
I0
sg32
I0
sg33
I0
sg34
I0
sg35
I0
sg36
I0
sg37
I0
sg38
I0
sg39
I0
sg40
I0
sg41
I0
sg42
I0
sg43
I0
sg44
I0
sg45
I0
sg46
I0
ssS'wellman'
p153
(dp154
g19
I0
sg8
I1
sg21
I0
sg16
I0
sg20
I0
sg12
I1
sg5
I0
sg17
I0
sg18
I0
sg3
I1
sg6
I0
sg7
I1
sg13
I0
sg15
I0
sg14
I0
sg10
I1
sg11
I1
sg4
I1
sg22
I0
sg9
I1
ssS'mahlke'
p155
(dp156
g19
I0
sg8
I0
sg21
I0
sg16
I1
sg20
I0
sg12
I1
sg5
I1
sg17
I1
sg18
I1
sg3
I0
sg6
I1
sg7
I0
sg13
I1
sg15
I1
sg14
I1
sg10
I1
sg11
I1
sg4
I0
sg22
I0
sg9
I1
ssS'tnm'
p157
(dp158
g19
I0
sg8
I0
sg21
I0
sg16
I0
sg20
I0
sg12
I0
sg5
I0
sg17
I0
sg18
I0
sg3
I0
sg6
I0
sg7
I0
sg13
I0
sg15
I0
sg14
I0
sg10
I0
sg11
I0
sg4
I0
sg22
I0
sg9
I0
ssS'shiyy'
p159
(dp160
g19
I0
sg8
I1
sg21
I0
sg16
I1
sg20
I0
sg12
I1
sg5
I1
sg17
I0
sg18
I0
sg3
I0
sg6
I1
sg7
I1
sg13
I1
sg15
I1
sg14
I1
sg10
I1
sg11
I1
sg4
I0
sg22
I0
sg9
I1
ssS'radev'
p161
(dp162
g19
I1
sg8
I1
sg21
I1
sg16
I1
sg20
I1
sg12
I1
sg5
I0
sg17
I1
sg18
I1
sg3
I0
sg6
I0
sg7
I1
sg13
I1
sg15
I1
sg14
I1
sg10
I1
sg11
I1
sg4
I0
sg22
I1
sg9
I1
sssS'uniqnames'
p163
c__builtin__
set
p164
((lp165
g25
ag47
ag161
ag49
ag51
ag53
ag55
ag57
ag59
ag61
ag63
ag65
ag67
ag69
ag71
ag123
ag73
ag75
ag77
ag79
ag81
ag85
ag87
ag89
ag91
ag93
ag95
ag97
ag99
ag129
ag103
ag105
ag107
ag109
ag111
ag113
ag115
ag117
ag119
ag121
ag127
ag125
ag83
ag101
ag131
ag133
ag135
ag137
ag141
ag143
ag145
ag147
ag149
ag151
ag153
ag155
ag157
ag159
ag139
atp166
Rp167
sS'student_rankings'
p168
(dp169
S'Yiping Kang <ypkang@umich.edu>'
p170
(lp171
g107
ag49
ag143
ag155
ag55
ag157
asS'Andrew Hassevoort <ahassevoort@gmail.com>'
p172
(lp173
g161
ag113
asS'Vaspol Ruamviboonsuk <vaspol@uw.edu>'
p174
(lp175
g125
ag85
ag149
asS'Carlo del Mundo <cdel@vt.edu>'
p176
(lp177
g155
ag49
ag143
ag115
ag87
ag55
ag107
asS'John Kolb <kolb0128@umn.edu>'
p178
(lp179
g57
ag53
ag127
ag65
asS'Parker Hill <parker.hill@modemlinks.com>'
p180
(lp181
g107
ag139
ag49
ag155
ag143
asS'Ruben Villegas <ruben.e.villegas@knights.ucf.edu>'
p182
(lp183
g69
ag75
ag99
ag91
ag161
asS'Shibamouli Lahiri <shibamoulilahiri@gmail.com>'
p184
(lp185
g91
ag141
asS'Travis Dick <tdick@ualberta.ca>'
p186
(lp187
g113
ag59
ag47
ag123
ag135
ag69
ag161
asS'Gunnar Sigurdsson <gasigurdsson@gmail.com>'
p188
(lp189
g69
ag123
ag141
ag161
ag113
asS'Sarah Seko <sarah.seko@students.olin.edu>'
p190
(lp191
g123
ag75
ag83
ag161
asS'Tim Lewis <timothy.lewis@hope.edu>'
p192
(lp193
g103
ag115
ag59
ag119
ag129
ag95
ag153
asS'Lynn Garrett <lynngarrett@uchicago.edu>'
p194
(lp195
g135
ag113
ag69
ag99
ag115
ag83
ag161
asS'Noam Brown <noam.brown@gmail.com>'
p196
(lp197
g153
ag59
ag113
ag47
ag91
ag115
ag161
asS'Zakaria Aldeneh <zakaria.aldeneh@gmail.com>'
p198
(lp199
g69
ag125
ag85
ag59
ag91
ag65
asS'Naomi Schurr <nschurr@mit.edu>'
p200
(lp201
g83
ag69
ag161
asS'John Hessel <jmhessel@gmail.com>'
p202
(lp203
g69
ag91
ag75
ag123
ag113
ag59
ag161
asS'Brandon Amos <bdamos@vt.edu>'
p204
(lp205
g65
ag51
ag117
ag115
ag69
ag107
asS'Yi-Ching Chiu <anniechiu92@gmail.com>'
p206
(lp207
g77
ag65
ag61
ag25
ag109
asS'Kiron Lebeck <kiron.lebeck@gmail.com>'
p208
(lp209
g117
ag65
ag93
ag133
ag57
ag107
asS'Xudong Liu <xudongliu09@gmail.com>'
p210
(lp211
g83
ag113
asS'Rachel Coston <rcoston@vt.edu>'
p212
(lp213
g83
ag161
ag113
asS'Mason Wright <mason.d.wright@vanderbilt.edu>'
p214
(lp215
g153
ag113
ag69
ag59
ag115
ag161
asS'Kevin Eykholt <kheykholt@gmail.com>'
p216
(lp217
g77
ag25
ag133
ag65
asS'Amanda Bower <amandarg@umich.edu>'
p218
(lp219
g115
ag119
ag113
ag103
ag129
ag153
asS'Amy Becker <amariah.becker@gmail.com>'
p220
(lp221
g95
ag115
ag103
ag151
ag129
asS'Dong-hyeon Park <dhpark@hmc.edu>'
p222
(lp223
g139
ag101
ag155
ag157
ag55
ag87
ag49
asS'Yifan Ge <ygg001@bucknell.edu>'
p224
(lp225
g139
ag101
ag49
ag87
ag155
ag115
ag55
asS'Harry Kalodner <harry.kalodner@gmail.com>'
p226
(lp227
g117
ag93
ag133
ag65
asS'Benjamin Mehne <bmehne@gmail.com>'
p228
(lp229
g139
ag93
ag107
asS'Dominik Moritz <domoritz@gmail.com>'
p230
(lp231
g127
ag125
ag85
ag113
ag69
ag135
asS'Zhongjun Jin <markjin1990@gmail.com>'
p232
(lp233
g65
ag125
ag77
asS'Chris Baik <cjbaik@umich.edu>'
p234
(lp235
g127
ag85
ag125
asS'Daming Chen <d.c.ddcc@gmail.com>'
p236
(lp237
g117
ag93
asS'William Sullivan <507 Colebrook River Road, Tolland MA>'
p238
(lp239
g105
ag115
ag135
ag55
asS'Ziyun Li <liziyun@umich.edu>'
p240
(lp241
g155
ass.