(dp0
S'slots'
p1
(lp2
S'1:30'
p3
aS'1:45'
p4
aS'2:00'
p5
aS'2:15'
p6
aS'2:30'
p7
aS'2:45'
p8
aS'3:00'
p9
aS'3:15'
p10
aS'3:30'
p11
aS'3:45'
p12
aS'4:00'
p13
aS'4:15'
p14
aS'4:30'
p15
aS'4:45'
p16
aS'5:00'
p17
aS'5:15'
p18
aS'5:30'
p19
aS'5:45'
p20
aS'6:00'
p21
aS'6:15'
p22
asS'fac_avail'
p23
(dp24
S'mibailey'
p25
(dp26
S'5:30'
p27
I0
sS'2:45'
p28
I0
sS'6:00'
p29
I0
sS'4:45'
p30
I0
sS'5:45'
p31
I0
sS'3:45'
p32
I0
sS'2:00'
p33
I0
sS'5:00'
p34
I0
sS'5:15'
p35
I0
sS'1:30'
p36
I0
sS'2:15'
p37
I0
sS'2:30'
p38
I0
sS'4:00'
p39
I0
sS'4:30'
p40
I0
sS'4:15'
p41
I0
sS'3:15'
p42
I0
sS'3:30'
p43
I0
sS'1:45'
p44
I0
sS'6:15'
p45
I0
sS'3:00'
p46
I0
ssS'laird'
p47
(dp48
g19
I0
sg8
I1
sg21
I0
sg16
I0
sg20
I0
sg12
I1
sg5
I0
sg17
I0
sg18
I0
sg3
I1
sg6
I0
sg7
I1
sg13
I1
sg15
I0
sg14
I1
sg10
I1
sg11
I1
sg4
I1
sg22
I0
sg9
I1
ssS'profmars'
p49
(dp50
g19
I1
sg8
I0
sg21
I0
sg16
I1
sg20
I1
sg12
I1
sg5
I1
sg17
I1
sg18
I1
sg3
I1
sg6
I1
sg7
I0
sg13
I1
sg15
I1
sg14
I1
sg10
I1
sg11
I1
sg4
I1
sg22
I0
sg9
I1
ssS'gessl'
p51
(dp52
g19
I0
sg8
I0
sg21
I0
sg16
I1
sg20
I0
sg12
I1
sg5
I0
sg17
I0
sg18
I0
sg3
I0
sg6
I0
sg7
I0
sg13
I1
sg15
I1
sg14
I1
sg10
I0
sg11
I1
sg4
I0
sg22
I0
sg9
I0
ssS'bnoble'
p53
(dp54
g27
I0
sg28
I0
sg29
I0
sg30
I0
sg31
I0
sg32
I0
sg33
I0
sg34
I0
sg35
I0
sg36
I0
sg37
I0
sg38
I0
sg39
I0
sg40
I0
sg41
I0
sg42
I0
sg43
I0
sg44
I0
sg45
I0
sg46
I0
ssS'marios'
p55
(dp56
g19
I0
sg8
I0
sg21
I0
sg16
I0
sg20
I0
sg12
I0
sg5
I1
sg17
I0
sg18
I0
sg3
I0
sg6
I1
sg7
I0
sg13
I0
sg15
I0
sg14
I0
sg10
I1
sg11
I0
sg4
I0
sg22
I0
sg9
I1
ssS'jflinn'
p57
(dp58
g19
I0
sg8
I1
sg21
I0
sg16
I1
sg20
I0
sg12
I1
sg5
I1
sg17
I1
sg18
I1
sg3
I1
sg6
I1
sg7
I1
sg13
I1
sg15
I1
sg14
I1
sg10
I1
sg11
I1
sg4
I1
sg22
I0
sg9
I1
ssS'baveja'
p59
(dp60
g19
I0
sg8
I1
sg21
I0
sg16
I1
sg20
I0
sg12
I1
sg5
I0
sg17
I1
sg18
I1
sg3
I1
sg6
I0
sg7
I1
sg13
I1
sg15
I1
sg14
I1
sg10
I1
sg11
I1
sg4
I1
sg22
I0
sg9
I1
ssS'farnam'
p61
(dp62
g27
I0
sg28
I0
sg29
I0
sg30
I0
sg31
I0
sg32
I0
sg33
I0
sg34
I0
sg35
I0
sg36
I0
sg37
I0
sg38
I0
sg39
I0
sg40
I0
sg41
I0
sg42
I0
sg43
I0
sg44
I0
sg45
I0
sg46
I0
ssS'karem'
p63
(dp64
g27
I0
sg28
I0
sg29
I0
sg30
I0
sg31
I0
sg32
I0
sg33
I0
sg34
I0
sg35
I0
sg36
I0
sg37
I0
sg38
I0
sg39
I0
sg40
I0
sg41
I0
sg42
I0
sg43
I0
sg44
I0
sg45
I0
sg46
I0
ssS'zmao'
p65
(dp66
g19
I0
sg8
I1
sg21
I0
sg16
I1
sg20
I0
sg12
I0
sg5
I1
sg17
I0
sg18
I0
sg3
I1
sg6
I1
sg7
I1
sg13
I1
sg15
I1
sg14
I1
sg10
I0
sg11
I0
sg4
I1
sg22
I0
sg9
I0
ssS'rdreslin'
p67
(dp68
g19
I1
sg8
I0
sg21
I1
sg16
I1
sg20
I1
sg12
I1
sg5
I1
sg17
I1
sg18
I1
sg3
I1
sg6
I1
sg7
I0
sg13
I1
sg15
I1
sg14
I1
sg10
I1
sg11
I1
sg4
I1
sg22
I1
sg9
I1
ssS'honglak'
p69
(dp70
g19
I0
sg8
I1
sg21
I0
sg16
I1
sg20
I0
sg12
I1
sg5
I0
sg17
I1
sg18
I1
sg3
I1
sg6
I0
sg7
I1
sg13
I1
sg15
I1
sg14
I1
sg10
I0
sg11
I1
sg4
I1
sg22
I0
sg9
I0
ssS'kieras'
p71
(dp72
g19
I0
sg8
I0
sg21
I0
sg16
I0
sg20
I0
sg12
I0
sg5
I0
sg17
I0
sg18
I0
sg3
I0
sg6
I0
sg7
I0
sg13
I0
sg15
I0
sg14
I0
sg10
I0
sg11
I0
sg4
I0
sg22
I0
sg9
I0
ssS'soloway'
p73
(dp74
g19
I0
sg8
I1
sg21
I0
sg16
I0
sg20
I0
sg12
I0
sg5
I0
sg17
I0
sg18
I0
sg3
I1
sg6
I0
sg7
I1
sg13
I0
sg15
I0
sg14
I0
sg10
I0
sg11
I0
sg4
I1
sg22
I0
sg9
I0
ssS'halderman@gmail.com'
p75
(dp76
g19
I0
sg8
I1
sg21
I1
sg16
I1
sg20
I0
sg12
I1
sg5
I0
sg17
I0
sg18
I0
sg3
I1
sg6
I0
sg7
I1
sg13
I0
sg15
I1
sg14
I0
sg10
I0
sg11
I1
sg4
I1
sg22
I1
sg9
I0
ssS'jiadeng'
p77
(dp78
g27
I0
sg28
I0
sg29
I0
sg30
I0
sg31
I0
sg32
I0
sg33
I0
sg34
I0
sg35
I0
sg36
I0
sg37
I0
sg38
I0
sg39
I0
sg40
I0
sg41
I0
sg42
I0
sg43
I0
sg44
I0
sg45
I0
sg46
I0
ssS'dawnf'
p79
(dp80
g19
I0
sg8
I0
sg21
I0
sg16
I0
sg20
I0
sg12
I0
sg5
I1
sg17
I0
sg18
I0
sg3
I1
sg6
I1
sg7
I0
sg13
I0
sg15
I0
sg14
I0
sg10
I0
sg11
I0
sg4
I1
sg22
I0
sg9
I0
ssS'sugih'
p81
(dp82
g19
I1
sg8
I1
sg21
I1
sg16
I0
sg20
I1
sg12
I1
sg5
I1
sg17
I0
sg18
I0
sg3
I1
sg6
I1
sg7
I1
sg13
I0
sg15
I0
sg14
I0
sg10
I1
sg11
I1
sg4
I1
sg22
I1
sg9
I1
ssS'mazum'
p83
(dp84
g27
I0
sg28
I0
sg29
I0
sg30
I0
sg31
I0
sg32
I0
sg33
I0
sg34
I0
sg35
I0
sg36
I0
sg37
I0
sg38
I0
sg39
I0
sg40
I0
sg41
I0
sg42
I0
sg43
I0
sg44
I0
sg45
I0
sg46
I0
ssS'stephane'
p85
(dp86
g27
I0
sg28
I0
sg29
I0
sg30
I0
sg31
I0
sg32
I0
sg33
I0
sg34
I0
sg35
I0
sg36
I0
sg37
I0
sg38
I0
sg39
I0
sg40
I0
sg41
I0
sg42
I0
sg43
I0
sg44
I0
sg45
I0
sg46
I0
ssS'mihalcea'
p87
(dp88
g19
I0
sg8
I1
sg21
I0
sg16
I1
sg20
I0
sg12
I0
sg5
I1
sg17
I1
sg18
I1
sg3
I0
sg6
I1
sg7
I1
sg13
I1
sg15
I1
sg14
I1
sg10
I0
sg11
I0
sg4
I0
sg22
I0
sg9
I0
ssS'moultond'
p89
(dp90
g19
I0
sg8
I0
sg21
I0
sg16
I0
sg20
I0
sg12
I1
sg5
I0
sg17
I0
sg18
I0
sg3
I0
sg6
I0
sg7
I0
sg13
I1
sg15
I0
sg14
I1
sg10
I1
sg11
I1
sg4
I0
sg22
I0
sg9
I1
ssS'jag'
p91
(dp92
g19
I0
sg8
I0
sg21
I0
sg16
I0
sg20
I0
sg12
I0
sg5
I0
sg17
I0
sg18
I0
sg3
I0
sg6
I0
sg7
I0
sg13
I0
sg15
I0
sg14
I0
sg10
I0
sg11
I0
sg4
I0
sg22
I0
sg9
I0
ssS'lingjia'
p93
(dp94
g19
I1
sg8
I0
sg21
I1
sg16
I1
sg20
I1
sg12
I1
sg5
I1
sg17
I1
sg18
I1
sg3
I1
sg6
I1
sg7
I0
sg13
I1
sg15
I1
sg14
I1
sg10
I1
sg11
I1
sg4
I1
sg22
I1
sg9
I1
ssS'teneket'
p95
(dp96
g27
I0
sg28
I0
sg29
I0
sg30
I0
sg31
I0
sg32
I0
sg33
I0
sg34
I0
sg35
I0
sg36
I0
sg37
I0
sg38
I0
sg39
I0
sg40
I0
sg41
I0
sg42
I0
sg43
I0
sg44
I0
sg45
I0
sg46
I0
ssS'emilykmp'
p97
(dp98
g19
I0
sg8
I1
sg21
I0
sg16
I1
sg20
I0
sg12
I1
sg5
I0
sg17
I1
sg18
I1
sg3
I0
sg6
I0
sg7
I1
sg13
I1
sg15
I1
sg14
I1
sg10
I1
sg11
I1
sg4
I0
sg22
I0
sg9
I1
ssS'jhalderm'
p99
(dp100
g19
I1
sg8
I0
sg21
I1
sg16
I1
sg20
I1
sg12
I1
sg5
I0
sg17
I1
sg18
I1
sg3
I0
sg6
I0
sg7
I0
sg13
I1
sg15
I1
sg14
I1
sg10
I0
sg11
I1
sg4
I0
sg22
I1
sg9
I0
ssS'pettie'
p101
(dp102
g27
I0
sg28
I0
sg29
I0
sg30
I0
sg31
I0
sg32
I0
sg33
I0
sg34
I0
sg35
I0
sg36
I0
sg37
I0
sg38
I0
sg39
I0
sg40
I0
sg41
I0
sg42
I0
sg43
I0
sg44
I0
sg45
I0
sg46
I0
ssS'dickrp'
p103
(dp104
g27
I0
sg28
I0
sg29
I0
sg30
I0
sg31
I0
sg32
I0
sg33
I0
sg34
I0
sg35
I0
sg36
I0
sg37
I0
sg38
I0
sg39
I0
sg40
I0
sg41
I0
sg42
I0
sg43
I0
sg44
I0
sg45
I0
sg46
I0
ssS'hero'
p105
(dp106
g27
I0
sg28
I0
sg29
I0
sg30
I0
sg31
I0
sg32
I0
sg33
I0
sg34
I0
sg35
I0
sg36
I0
sg37
I0
sg38
I0
sg39
I0
sg40
I0
sg41
I0
sg42
I0
sg43
I0
sg44
I0
sg45
I0
sg46
I0
ssS'valeria'
p107
(dp108
g19
I0
sg8
I0
sg21
I0
sg16
I0
sg20
I0
sg12
I0
sg5
I0
sg17
I0
sg18
I0
sg3
I0
sg6
I0
sg7
I0
sg13
I0
sg15
I0
sg14
I0
sg10
I0
sg11
I0
sg4
I0
sg22
I0
sg9
I0
ssS'schoeneb'
p109
(dp110
g19
I0
sg8
I1
sg21
I0
sg16
I1
sg20
I0
sg12
I1
sg5
I1
sg17
I0
sg18
I0
sg3
I0
sg6
I1
sg7
I1
sg13
I1
sg15
I1
sg14
I1
sg10
I1
sg11
I1
sg4
I0
sg22
I0
sg9
I1
ssS'jhayes'
p111
(dp112
g19
I0
sg8
I0
sg21
I0
sg16
I1
sg20
I0
sg12
I1
sg5
I0
sg17
I1
sg18
I1
sg3
I0
sg6
I0
sg7
I0
sg13
I1
sg15
I1
sg14
I1
sg10
I1
sg11
I1
sg4
I0
sg22
I0
sg9
I1
ssS'reetudas'
p113
(dp114
g19
I0
sg8
I1
sg21
I0
sg16
I0
sg20
I0
sg12
I0
sg5
I1
sg17
I0
sg18
I0
sg3
I1
sg6
I1
sg7
I1
sg13
I0
sg15
I0
sg14
I0
sg10
I0
sg11
I0
sg4
I1
sg22
I0
sg9
I0
ssS'nsatish'
p115
(dp116
g19
I0
sg8
I0
sg21
I0
sg16
I0
sg20
I0
sg12
I1
sg5
I1
sg17
I0
sg18
I0
sg3
I1
sg6
I1
sg7
I0
sg13
I0
sg15
I0
sg14
I0
sg10
I1
sg11
I1
sg4
I1
sg22
I0
sg9
I1
ssS'kgshin'
p117
(dp118
g19
I0
sg8
I0
sg21
I0
sg16
I1
sg20
I0
sg12
I1
sg5
I0
sg17
I0
sg18
I0
sg3
I0
sg6
I0
sg7
I0
sg13
I1
sg15
I1
sg14
I1
sg10
I1
sg11
I1
sg4
I0
sg22
I0
sg9
I1
ssS'blaauw'
p119
(dp120
g27
I0
sg28
I0
sg29
I0
sg30
I0
sg31
I0
sg32
I0
sg33
I0
sg34
I0
sg35
I0
sg36
I0
sg37
I0
sg38
I0
sg39
I0
sg40
I0
sg41
I0
sg42
I0
sg43
I0
sg44
I0
sg45
I0
sg46
I0
ssS'jabernet'
p121
(dp122
g19
I1
sg8
I0
sg21
I1
sg16
I1
sg20
I1
sg12
I0
sg5
I0
sg17
I1
sg18
I1
sg3
I0
sg6
I0
sg7
I0
sg13
I1
sg15
I1
sg14
I1
sg10
I0
sg11
I0
sg4
I0
sg22
I1
sg9
I0
ssS'qstout'
p123
(dp124
g19
I1
sg8
I1
sg21
I1
sg16
I1
sg20
I1
sg12
I1
sg5
I0
sg17
I0
sg18
I0
sg3
I0
sg6
I0
sg7
I1
sg13
I1
sg15
I1
sg14
I1
sg10
I1
sg11
I1
sg4
I0
sg22
I1
sg9
I1
ssS'kevinfu'
p125
(dp126
g27
I0
sg28
I0
sg29
I0
sg30
I0
sg31
I0
sg32
I0
sg33
I0
sg34
I0
sg35
I0
sg36
I0
sg37
I0
sg38
I0
sg39
I0
sg40
I0
sg41
I0
sg42
I0
sg43
I0
sg44
I0
sg45
I0
sg46
I0
ssS'martinjs'
p127
(dp128
g19
I0
sg8
I1
sg21
I0
sg16
I1
sg20
I0
sg12
I0
sg5
I1
sg17
I1
sg18
I1
sg3
I0
sg6
I1
sg7
I1
sg13
I0
sg15
I1
sg14
I0
sg10
I1
sg11
I0
sg4
I0
sg22
I0
sg9
I1
ssS'aprakash'
p129
(dp130
g19
I1
sg8
I0
sg21
I1
sg16
I0
sg20
I1
sg12
I0
sg5
I0
sg17
I1
sg18
I1
sg3
I0
sg6
I0
sg7
I0
sg13
I0
sg15
I0
sg14
I0
sg10
I0
sg11
I0
sg4
I0
sg22
I1
sg9
I0
ssS'ebolson'
p131
(dp132
g19
I1
sg8
I1
sg21
I1
sg16
I0
sg20
I1
sg12
I0
sg5
I1
sg17
I1
sg18
I1
sg3
I0
sg6
I1
sg7
I1
sg13
I0
sg15
I0
sg14
I0
sg10
I1
sg11
I0
sg4
I0
sg22
I1
sg9
I1
ssS'michjc'
p133
(dp134
g19
I0
sg8
I1
sg21
I0
sg16
I0
sg20
I0
sg12
I1
sg5
I0
sg17
I0
sg18
I0
sg3
I0
sg6
I0
sg7
I1
sg13
I0
sg15
I0
sg14
I0
sg10
I1
sg11
I1
sg4
I0
sg22
I0
sg9
I1
ssS'mozafari'
p135
(dp136
g19
I0
sg8
I0
sg21
I0
sg16
I0
sg20
I0
sg12
I0
sg5
I0
sg17
I0
sg18
I0
sg3
I0
sg6
I0
sg7
I0
sg13
I0
sg15
I0
sg14
I0
sg10
I0
sg11
I0
sg4
I0
sg22
I0
sg9
I0
ssS'kjc'
p137
(dp138
g19
I0
sg8
I1
sg21
I0
sg16
I0
sg20
I0
sg12
I1
sg5
I1
sg17
I0
sg18
I0
sg3
I0
sg6
I1
sg7
I1
sg13
I0
sg15
I0
sg14
I0
sg10
I1
sg11
I1
sg4
I0
sg22
I0
sg9
I1
ssS'zhs'
p139
(dp140
g27
I0
sg28
I0
sg29
I0
sg30
I0
sg31
I0
sg32
I0
sg33
I0
sg34
I0
sg35
I0
sg36
I0
sg37
I0
sg38
I0
sg39
I0
sg40
I0
sg41
I0
sg42
I0
sg43
I0
sg44
I0
sg45
I0
sg46
I0
ssS'pmchen'
p141
(dp142
g19
I1
sg8
I0
sg21
I1
sg16
I1
sg20
I1
sg12
I0
sg5
I0
sg17
I1
sg18
I1
sg3
I0
sg6
I0
sg7
I0
sg13
I0
sg15
I1
sg14
I0
sg10
I0
sg11
I0
sg4
I0
sg22
I1
sg9
I0
ssS'durfee'
p143
(dp144
g19
I1
sg8
I1
sg21
I0
sg16
I1
sg20
I1
sg12
I0
sg5
I0
sg17
I1
sg18
I1
sg3
I1
sg6
I0
sg7
I1
sg13
I0
sg15
I1
sg14
I0
sg10
I0
sg11
I0
sg4
I1
sg22
I0
sg9
I0
ssS'prabal'
p145
(dp146
g19
I0
sg8
I0
sg21
I0
sg16
I0
sg20
I0
sg12
I0
sg5
I0
sg17
I0
sg18
I0
sg3
I0
sg6
I0
sg7
I0
sg13
I0
sg15
I0
sg14
I0
sg10
I0
sg11
I0
sg4
I0
sg22
I0
sg9
I0
ssS'austin'
p147
(dp148
g27
I0
sg28
I0
sg29
I0
sg30
I0
sg31
I0
sg32
I0
sg33
I0
sg34
I0
sg35
I0
sg36
I0
sg37
I0
sg38
I0
sg39
I0
sg40
I0
sg41
I0
sg42
I0
sg43
I0
sg44
I0
sg45
I0
sg46
I0
ssS'kuipers'
p149
(dp150
g19
I0
sg8
I1
sg21
I0
sg16
I0
sg20
I0
sg12
I0
sg5
I0
sg17
I0
sg18
I0
sg3
I1
sg6
I0
sg7
I1
sg13
I0
sg15
I0
sg14
I0
sg10
I0
sg11
I0
sg4
I1
sg22
I0
sg9
I0
ssS'twenisch'
p151
(dp152
g27
I0
sg28
I0
sg29
I0
sg30
I0
sg31
I0
sg32
I0
sg33
I0
sg34
I0
sg35
I0
sg36
I0
sg37
I0
sg38
I0
sg39
I0
sg40
I0
sg41
I0
sg42
I0
sg43
I0
sg44
I0
sg45
I0
sg46
I0
ssS'mingyan'
p153
(dp154
g27
I0
sg28
I0
sg29
I0
sg30
I0
sg31
I0
sg32
I0
sg33
I0
sg34
I0
sg35
I0
sg36
I0
sg37
I0
sg38
I0
sg39
I0
sg40
I0
sg41
I0
sg42
I0
sg43
I0
sg44
I0
sg45
I0
sg46
I0
ssS'ghw'
p155
(dp156
g19
I0
sg8
I1
sg21
I0
sg16
I0
sg20
I0
sg12
I0
sg5
I0
sg17
I0
sg18
I0
sg3
I1
sg6
I0
sg7
I1
sg13
I0
sg15
I0
sg14
I0
sg10
I0
sg11
I0
sg4
I1
sg22
I0
sg9
I0
ssS'ackerm'
p157
(dp158
g27
I0
sg28
I0
sg29
I0
sg30
I0
sg31
I0
sg32
I0
sg33
I0
sg34
I0
sg35
I0
sg36
I0
sg37
I0
sg38
I0
sg39
I0
sg40
I0
sg41
I0
sg42
I0
sg43
I0
sg44
I0
sg45
I0
sg46
I0
ssS'imarkov'
p159
(dp160
g27
I0
sg28
I0
sg29
I0
sg30
I0
sg31
I0
sg32
I0
sg33
I0
sg34
I0
sg35
I0
sg36
I0
sg37
I0
sg38
I0
sg39
I0
sg40
I0
sg41
I0
sg42
I0
sg43
I0
sg44
I0
sg45
I0
sg46
I0
ssS'wellman'
p161
(dp162
g19
I0
sg8
I1
sg21
I0
sg16
I0
sg20
I0
sg12
I1
sg5
I0
sg17
I0
sg18
I0
sg3
I1
sg6
I0
sg7
I1
sg13
I0
sg15
I0
sg14
I0
sg10
I1
sg11
I1
sg4
I1
sg22
I0
sg9
I1
ssS'mahlke'
p163
(dp164
g19
I0
sg8
I0
sg21
I0
sg16
I1
sg20
I0
sg12
I1
sg5
I1
sg17
I1
sg18
I1
sg3
I0
sg6
I1
sg7
I0
sg13
I1
sg15
I1
sg14
I1
sg10
I1
sg11
I1
sg4
I0
sg22
I0
sg9
I1
ssS'tnm'
p165
(dp166
g19
I0
sg8
I0
sg21
I0
sg16
I0
sg20
I0
sg12
I0
sg5
I0
sg17
I0
sg18
I0
sg3
I0
sg6
I0
sg7
I0
sg13
I0
sg15
I0
sg14
I0
sg10
I0
sg11
I0
sg4
I0
sg22
I0
sg9
I0
ssS'shiyy'
p167
(dp168
g19
I0
sg8
I1
sg21
I0
sg16
I1
sg20
I0
sg12
I1
sg5
I1
sg17
I0
sg18
I0
sg3
I0
sg6
I1
sg7
I1
sg13
I1
sg15
I1
sg14
I1
sg10
I1
sg11
I1
sg4
I0
sg22
I0
sg9
I1
ssS'radev'
p169
(dp170
g19
I1
sg8
I1
sg21
I1
sg16
I1
sg20
I1
sg12
I1
sg5
I0
sg17
I1
sg18
I1
sg3
I0
sg6
I0
sg7
I1
sg13
I1
sg15
I1
sg14
I1
sg10
I1
sg11
I1
sg4
I0
sg22
I1
sg9
I1
ssS'jcpatt'
p171
(dp172
g19
I0
sg8
I1
sg21
I0
sg16
I0
sg20
I0
sg12
I1
sg5
I1
sg17
I0
sg18
I0
sg3
I1
sg6
I1
sg7
I1
sg13
I1
sg15
I0
sg14
I1
sg10
I1
sg11
I1
sg4
I1
sg22
I0
sg9
I1
sssS'uniqnames'
p173
c__builtin__
set
p174
((lp175
g25
ag47
ag169
ag49
ag51
ag53
ag55
ag57
ag59
ag61
ag63
ag65
ag67
ag69
ag71
ag131
ag73
ag77
ag81
ag83
ag85
ag91
ag93
ag95
ag97
ag99
ag101
ag103
ag105
ag137
ag109
ag111
ag115
ag117
ag119
ag121
ag123
ag125
ag127
ag129
ag135
ag133
ag87
ag107
ag139
ag141
ag143
ag145
ag149
ag151
ag153
ag155
ag157
ag159
ag161
ag163
ag165
ag167
ag147
atp176
Rp177
sS'student_rankings'
p178
(dp179
S'Yiping Kang <ypkang@umich.edu>'
p180
(lp181
g115
ag49
ag151
ag163
ag55
ag165
asS'Andrew Hassevoort <ahassevoort@gmail.com>'
p182
(lp183
g169
ag121
asS'Vaspol Ruamviboonsuk <vaspol@uw.edu>'
p184
(lp185
g133
ag91
ag157
asS'Carlo del Mundo <cdel@vt.edu>'
p186
(lp187
g163
ag49
ag151
ag123
ag93
ag55
ag115
asS'John Kolb <kolb0128@umn.edu>'
p188
(lp189
g57
ag53
ag135
ag65
asS'Parker Hill <parker.hill@modemlinks.com>'
p190
(lp191
g115
ag147
ag49
ag163
ag151
asS'Ruben Villegas <ruben.e.villegas@knights.ucf.edu>'
p192
(lp193
g69
ag77
ag105
ag97
ag169
asS'Shibamouli Lahiri <shibamoulilahiri@gmail.com>'
p194
(lp195
g97
ag149
asS'Travis Dick <tdick@ualberta.ca>'
p196
(lp197
g121
ag59
ag47
ag131
ag143
ag69
ag169
asS'Gunnar Sigurdsson <gasigurdsson@gmail.com>'
p198
(lp199
g69
ag131
ag149
ag169
ag121
asS'Sarah Seko <sarah.seko@students.olin.edu>'
p200
(lp201
g131
ag77
ag87
ag169
asS'Tim Lewis <timothy.lewis@hope.edu>'
p202
(lp203
g109
ag123
ag59
ag127
ag137
ag101
ag161
asS'Lynn Garrett <lynngarrett@uchicago.edu>'
p204
(lp205
g143
ag121
ag69
ag105
ag123
ag87
ag169
asS'Noam Brown <noam.brown@gmail.com>'
p206
(lp207
g161
ag59
ag121
ag47
ag97
ag123
ag169
asS'Zakaria Aldeneh <zakaria.aldeneh@gmail.com>'
p208
(lp209
g69
ag133
ag91
ag59
ag97
ag65
asS'Naomi Schurr <nschurr@mit.edu>'
p210
(lp211
g87
ag69
ag169
asS'John Hessel <jmhessel@gmail.com>'
p212
(lp213
g69
ag97
ag77
ag131
ag121
ag59
ag169
asS'Brandon Amos <bdamos@vt.edu>'
p214
(lp215
g65
ag51
ag125
ag123
ag69
ag115
asS'Yi-Ching Chiu <anniechiu92@gmail.com>'
p216
(lp217
g81
ag65
ag61
ag25
ag117
asS'Kiron Lebeck <kiron.lebeck@gmail.com>'
p218
(lp219
g125
ag65
ag99
ag141
ag57
ag115
asS'Xudong Liu <xudongliu09@gmail.com>'
p220
(lp221
g87
ag121
asS'Rachel Coston <rcoston@vt.edu>'
p222
(lp223
g87
ag169
ag121
asS'Mason Wright <mason.d.wright@vanderbilt.edu>'
p224
(lp225
g161
ag121
ag69
ag59
ag123
ag169
asS'Kevin Eykholt <kheykholt@gmail.com>'
p226
(lp227
g81
ag25
ag141
ag65
asS'Amanda Bower <amandarg@umich.edu>'
p228
(lp229
g123
ag127
ag121
ag109
ag137
ag161
asS'Amy Becker <amariah.becker@gmail.com>'
p230
(lp231
g101
ag123
ag109
ag159
ag137
asS'Dong-hyeon Park <dhpark@hmc.edu>'
p232
(lp233
g147
ag107
ag163
ag165
ag55
ag93
ag49
asS'Yifan Ge <ygg001@bucknell.edu>'
p234
(lp235
g147
ag107
ag49
ag93
ag163
ag123
ag55
asS'Harry Kalodner <harry.kalodner@gmail.com>'
p236
(lp237
g125
ag99
ag141
ag65
asS'Benjamin Mehne <bmehne@gmail.com>'
p238
(lp239
g147
ag99
ag115
asS'Dominik Moritz <domoritz@gmail.com>'
p240
(lp241
g135
ag133
ag91
ag121
ag69
ag143
asS'Zhongjun Jin <markjin1990@gmail.com>'
p242
(lp243
g65
ag133
ag81
asS'Chris Baik <cjbaik@umich.edu>'
p244
(lp245
g135
ag91
ag133
asS'Daming Chen <d.c.ddcc@gmail.com>'
p246
(lp247
g125
ag99
asS'William Sullivan <507 Colebrook River Road, Tolland MA>'
p248
(lp249
g111
ag123
ag143
ag55
asS'Ziyun Li <liziyun@umich.edu>'
p250
(lp251
g163
ass.