(dp0
S'slots'
p1
(lp2
S'1:30'
p3
aS'1:45'
p4
aS'2:00'
p5
aS'2:15'
p6
aS'2:30'
p7
aS'2:45'
p8
aS'3:00'
p9
aS'3:15'
p10
aS'3:30'
p11
aS'3:45'
p12
aS'4:00'
p13
aS'4:15'
p14
aS'4:30'
p15
aS'4:45'
p16
aS'5:00'
p17
aS'5:15'
p18
aS'5:30'
p19
aS'5:45'
p20
aS'6:00'
p21
aS'6:15'
p22
asS'fac_avail'
p23
(dp24
S'mibailey'
p25
(dp26
S'5:30'
p27
I0
sS'2:45'
p28
I0
sS'6:00'
p29
I0
sS'4:45'
p30
I0
sS'5:45'
p31
I0
sS'3:45'
p32
I0
sS'2:00'
p33
I0
sS'5:00'
p34
I0
sS'5:15'
p35
I0
sS'1:30'
p36
I0
sS'2:15'
p37
I0
sS'2:30'
p38
I0
sS'4:00'
p39
I0
sS'4:30'
p40
I0
sS'4:15'
p41
I0
sS'3:15'
p42
I0
sS'3:30'
p43
I0
sS'1:45'
p44
I0
sS'6:15'
p45
I0
sS'3:00'
p46
I0
ssS'laird'
p47
(dp48
g19
I0
sg8
I1
sg21
I0
sg16
I0
sg20
I0
sg12
I1
sg5
I0
sg17
I0
sg18
I0
sg3
I1
sg6
I0
sg7
I1
sg13
I1
sg15
I0
sg14
I1
sg10
I1
sg11
I1
sg4
I1
sg22
I0
sg9
I1
ssS'profmars'
p49
(dp50
g19
I1
sg8
I0
sg21
I0
sg16
I1
sg20
I1
sg12
I1
sg5
I1
sg17
I1
sg18
I1
sg3
I1
sg6
I1
sg7
I0
sg13
I1
sg15
I1
sg14
I1
sg10
I1
sg11
I1
sg4
I1
sg22
I0
sg9
I1
ssS'gessl'
p51
(dp52
g19
I0
sg8
I0
sg21
I0
sg16
I1
sg20
I0
sg12
I1
sg5
I0
sg17
I0
sg18
I0
sg3
I0
sg6
I0
sg7
I0
sg13
I1
sg15
I1
sg14
I1
sg10
I0
sg11
I1
sg4
I0
sg22
I0
sg9
I0
ssS'bnoble'
p53
(dp54
g27
I0
sg28
I0
sg29
I0
sg30
I0
sg31
I0
sg32
I0
sg33
I0
sg34
I0
sg35
I0
sg36
I0
sg37
I0
sg38
I0
sg39
I0
sg40
I0
sg41
I0
sg42
I0
sg43
I0
sg44
I0
sg45
I0
sg46
I0
ssS'marios'
p55
(dp56
g19
I0
sg8
I0
sg21
I0
sg16
I0
sg20
I0
sg12
I0
sg5
I1
sg17
I0
sg18
I0
sg3
I0
sg6
I1
sg7
I0
sg13
I0
sg15
I0
sg14
I0
sg10
I1
sg11
I0
sg4
I0
sg22
I0
sg9
I1
ssS'jflinn'
p57
(dp58
g19
I0
sg8
I1
sg21
I0
sg16
I1
sg20
I0
sg12
I1
sg5
I1
sg17
I1
sg18
I1
sg3
I1
sg6
I1
sg7
I1
sg13
I1
sg15
I1
sg14
I1
sg10
I1
sg11
I1
sg4
I1
sg22
I0
sg9
I1
ssS'baveja'
p59
(dp60
g19
I0
sg8
I1
sg21
I0
sg16
I1
sg20
I0
sg12
I1
sg5
I0
sg17
I1
sg18
I1
sg3
I1
sg6
I0
sg7
I1
sg13
I1
sg15
I1
sg14
I1
sg10
I1
sg11
I1
sg4
I1
sg22
I0
sg9
I1
ssS'farnam'
p61
(dp62
g27
I0
sg28
I0
sg29
I0
sg30
I0
sg31
I0
sg32
I0
sg33
I0
sg34
I0
sg35
I0
sg36
I0
sg37
I0
sg38
I0
sg39
I0
sg40
I0
sg41
I0
sg42
I0
sg43
I0
sg44
I0
sg45
I0
sg46
I0
ssS'karem'
p63
(dp64
g27
I0
sg28
I0
sg29
I0
sg30
I0
sg31
I0
sg32
I0
sg33
I0
sg34
I0
sg35
I0
sg36
I0
sg37
I0
sg38
I0
sg39
I0
sg40
I0
sg41
I0
sg42
I0
sg43
I0
sg44
I0
sg45
I0
sg46
I0
ssS'zmao'
p65
(dp66
g19
I0
sg8
I1
sg21
I0
sg16
I1
sg20
I0
sg12
I0
sg5
I1
sg17
I0
sg18
I0
sg3
I1
sg6
I1
sg7
I1
sg13
I1
sg15
I1
sg14
I1
sg10
I0
sg11
I0
sg4
I1
sg22
I0
sg9
I0
ssS'kevinfu'
p67
(dp68
g19
I0
sg8
I1
sg21
I0
sg16
I0
sg20
I0
sg12
I1
sg5
I1
sg17
I0
sg18
I0
sg3
I1
sg6
I1
sg7
I1
sg13
I1
sg15
I0
sg14
I1
sg10
I1
sg11
I1
sg4
I1
sg22
I0
sg9
I1
ssS'rdreslin'
p69
(dp70
g27
I0
sg28
I0
sg29
I0
sg30
I0
sg31
I0
sg32
I0
sg33
I0
sg34
I0
sg35
I0
sg36
I0
sg37
I0
sg38
I0
sg39
I0
sg40
I0
sg41
I0
sg42
I0
sg43
I0
sg44
I0
sg45
I0
sg46
I0
ssS'honglak'
p71
(dp72
g19
I0
sg8
I1
sg21
I0
sg16
I1
sg20
I0
sg12
I1
sg5
I0
sg17
I1
sg18
I1
sg3
I1
sg6
I0
sg7
I1
sg13
I1
sg15
I1
sg14
I1
sg10
I0
sg11
I1
sg4
I1
sg22
I0
sg9
I0
ssS'kieras'
p73
(dp74
g19
I0
sg8
I0
sg21
I0
sg16
I0
sg20
I0
sg12
I0
sg5
I0
sg17
I0
sg18
I0
sg3
I0
sg6
I0
sg7
I0
sg13
I0
sg15
I0
sg14
I0
sg10
I0
sg11
I0
sg4
I0
sg22
I0
sg9
I0
ssS'soloway'
p75
(dp76
g19
I0
sg8
I1
sg21
I0
sg16
I0
sg20
I0
sg12
I0
sg5
I0
sg17
I0
sg18
I0
sg3
I1
sg6
I0
sg7
I1
sg13
I0
sg15
I0
sg14
I0
sg10
I0
sg11
I0
sg4
I1
sg22
I0
sg9
I0
ssS'jiadeng'
p77
(dp78
g27
I0
sg28
I0
sg29
I0
sg30
I0
sg31
I0
sg32
I0
sg33
I0
sg34
I0
sg35
I0
sg36
I0
sg37
I0
sg38
I0
sg39
I0
sg40
I0
sg41
I0
sg42
I0
sg43
I0
sg44
I0
sg45
I0
sg46
I0
ssS'sugih'
p79
(dp80
g19
I1
sg8
I1
sg21
I1
sg16
I0
sg20
I1
sg12
I1
sg5
I1
sg17
I0
sg18
I0
sg3
I1
sg6
I1
sg7
I1
sg13
I0
sg15
I0
sg14
I0
sg10
I1
sg11
I1
sg4
I1
sg22
I1
sg9
I1
ssS'mazum'
p81
(dp82
g27
I0
sg28
I0
sg29
I0
sg30
I0
sg31
I0
sg32
I0
sg33
I0
sg34
I0
sg35
I0
sg36
I0
sg37
I0
sg38
I0
sg39
I0
sg40
I0
sg41
I0
sg42
I0
sg43
I0
sg44
I0
sg45
I0
sg46
I0
ssS'stephane'
p83
(dp84
g27
I0
sg28
I0
sg29
I0
sg30
I0
sg31
I0
sg32
I0
sg33
I0
sg34
I0
sg35
I0
sg36
I0
sg37
I0
sg38
I0
sg39
I0
sg40
I0
sg41
I0
sg42
I0
sg43
I0
sg44
I0
sg45
I0
sg46
I0
ssS'mihalcea'
p85
(dp86
g19
I0
sg8
I1
sg21
I0
sg16
I1
sg20
I0
sg12
I0
sg5
I1
sg17
I1
sg18
I1
sg3
I0
sg6
I1
sg7
I1
sg13
I1
sg15
I1
sg14
I1
sg10
I0
sg11
I0
sg4
I0
sg22
I0
sg9
I0
ssS'moultond'
p87
(dp88
g27
I0
sg28
I0
sg29
I0
sg30
I0
sg31
I0
sg32
I0
sg33
I0
sg34
I0
sg35
I0
sg36
I0
sg37
I0
sg38
I0
sg39
I0
sg40
I0
sg41
I0
sg42
I0
sg43
I0
sg44
I0
sg45
I0
sg46
I0
ssS'jag'
p89
(dp90
g19
I0
sg8
I0
sg21
I0
sg16
I0
sg20
I0
sg12
I0
sg5
I0
sg17
I0
sg18
I0
sg3
I0
sg6
I0
sg7
I0
sg13
I0
sg15
I0
sg14
I0
sg10
I0
sg11
I0
sg4
I0
sg22
I0
sg9
I0
ssS'lingjia'
p91
(dp92
g19
I1
sg8
I0
sg21
I1
sg16
I1
sg20
I1
sg12
I1
sg5
I1
sg17
I1
sg18
I1
sg3
I1
sg6
I1
sg7
I0
sg13
I1
sg15
I1
sg14
I1
sg10
I1
sg11
I1
sg4
I1
sg22
I1
sg9
I1
ssS'teneket'
p93
(dp94
g27
I0
sg28
I0
sg29
I0
sg30
I0
sg31
I0
sg32
I0
sg33
I0
sg34
I0
sg35
I0
sg36
I0
sg37
I0
sg38
I0
sg39
I0
sg40
I0
sg41
I0
sg42
I0
sg43
I0
sg44
I0
sg45
I0
sg46
I0
ssS'emilykmp'
p95
(dp96
g19
I0
sg8
I1
sg21
I0
sg16
I1
sg20
I0
sg12
I1
sg5
I0
sg17
I1
sg18
I1
sg3
I0
sg6
I0
sg7
I1
sg13
I1
sg15
I1
sg14
I1
sg10
I1
sg11
I1
sg4
I0
sg22
I0
sg9
I1
ssS'jhalderm'
p97
(dp98
g19
I1
sg8
I0
sg21
I1
sg16
I1
sg20
I1
sg12
I1
sg5
I0
sg17
I1
sg18
I1
sg3
I0
sg6
I0
sg7
I0
sg13
I1
sg15
I1
sg14
I1
sg10
I0
sg11
I1
sg4
I0
sg22
I1
sg9
I0
ssS'pettie'
p99
(dp100
g27
I0
sg28
I0
sg29
I0
sg30
I0
sg31
I0
sg32
I0
sg33
I0
sg34
I0
sg35
I0
sg36
I0
sg37
I0
sg38
I0
sg39
I0
sg40
I0
sg41
I0
sg42
I0
sg43
I0
sg44
I0
sg45
I0
sg46
I0
ssS'dickrp'
p101
(dp102
g27
I0
sg28
I0
sg29
I0
sg30
I0
sg31
I0
sg32
I0
sg33
I0
sg34
I0
sg35
I0
sg36
I0
sg37
I0
sg38
I0
sg39
I0
sg40
I0
sg41
I0
sg42
I0
sg43
I0
sg44
I0
sg45
I0
sg46
I0
ssS'hero'
p103
(dp104
g27
I0
sg28
I0
sg29
I0
sg30
I0
sg31
I0
sg32
I0
sg33
I0
sg34
I0
sg35
I0
sg36
I0
sg37
I0
sg38
I0
sg39
I0
sg40
I0
sg41
I0
sg42
I0
sg43
I0
sg44
I0
sg45
I0
sg46
I0
ssS'valeria'
p105
(dp106
g19
I0
sg8
I0
sg21
I0
sg16
I0
sg20
I0
sg12
I0
sg5
I0
sg17
I0
sg18
I0
sg3
I0
sg6
I0
sg7
I0
sg13
I0
sg15
I0
sg14
I0
sg10
I0
sg11
I0
sg4
I0
sg22
I0
sg9
I0
ssS'schoeneb'
p107
(dp108
g19
I0
sg8
I1
sg21
I0
sg16
I1
sg20
I0
sg12
I1
sg5
I1
sg17
I0
sg18
I0
sg3
I0
sg6
I1
sg7
I1
sg13
I1
sg15
I1
sg14
I1
sg10
I1
sg11
I1
sg4
I0
sg22
I0
sg9
I1
ssS'jhayes'
p109
(dp110
g19
I0
sg8
I0
sg21
I0
sg16
I1
sg20
I0
sg12
I1
sg5
I0
sg17
I1
sg18
I1
sg3
I0
sg6
I0
sg7
I0
sg13
I1
sg15
I1
sg14
I1
sg10
I1
sg11
I1
sg4
I0
sg22
I0
sg9
I1
ssS'reetudas'
p111
(dp112
g27
I0
sg28
I0
sg29
I0
sg30
I0
sg31
I0
sg32
I0
sg33
I0
sg34
I0
sg35
I0
sg36
I0
sg37
I0
sg38
I0
sg39
I0
sg40
I0
sg41
I0
sg42
I0
sg43
I0
sg44
I0
sg45
I0
sg46
I0
ssS'nsatish'
p113
(dp114
g19
I0
sg8
I0
sg21
I0
sg16
I0
sg20
I0
sg12
I1
sg5
I1
sg17
I0
sg18
I0
sg3
I1
sg6
I1
sg7
I0
sg13
I0
sg15
I0
sg14
I0
sg10
I1
sg11
I1
sg4
I1
sg22
I0
sg9
I1
ssS'kgshin'
p115
(dp116
g19
I0
sg8
I0
sg21
I0
sg16
I1
sg20
I0
sg12
I1
sg5
I0
sg17
I0
sg18
I0
sg3
I0
sg6
I0
sg7
I0
sg13
I1
sg15
I1
sg14
I1
sg10
I1
sg11
I1
sg4
I0
sg22
I0
sg9
I1
ssS'blaauw'
p117
(dp118
g27
I0
sg28
I0
sg29
I0
sg30
I0
sg31
I0
sg32
I0
sg33
I0
sg34
I0
sg35
I0
sg36
I0
sg37
I0
sg38
I0
sg39
I0
sg40
I0
sg41
I0
sg42
I0
sg43
I0
sg44
I0
sg45
I0
sg46
I0
ssS'jabernet'
p119
(dp120
g19
I1
sg8
I0
sg21
I1
sg16
I1
sg20
I1
sg12
I0
sg5
I0
sg17
I1
sg18
I1
sg3
I1
sg6
I0
sg7
I0
sg13
I1
sg15
I1
sg14
I1
sg10
I0
sg11
I0
sg4
I1
sg22
I1
sg9
I0
ssS'qstout'
p121
(dp122
g19
I1
sg8
I1
sg21
I1
sg16
I1
sg20
I1
sg12
I1
sg5
I0
sg17
I0
sg18
I0
sg3
I0
sg6
I0
sg7
I1
sg13
I1
sg15
I1
sg14
I1
sg10
I1
sg11
I1
sg4
I0
sg22
I1
sg9
I1
ssS'smash'
p123
(dp124
g27
I0
sg28
I0
sg29
I0
sg30
I0
sg31
I0
sg32
I0
sg33
I0
sg34
I0
sg35
I0
sg36
I0
sg37
I0
sg38
I0
sg39
I0
sg40
I0
sg41
I0
sg42
I0
sg43
I0
sg44
I0
sg45
I0
sg46
I0
ssS'martinjs'
p125
(dp126
g19
I0
sg8
I1
sg21
I0
sg16
I1
sg20
I0
sg12
I0
sg5
I1
sg17
I1
sg18
I1
sg3
I0
sg6
I1
sg7
I1
sg13
I0
sg15
I1
sg14
I0
sg10
I1
sg11
I0
sg4
I0
sg22
I0
sg9
I1
ssS'aprakash'
p127
(dp128
g19
I1
sg8
I0
sg21
I1
sg16
I0
sg20
I1
sg12
I0
sg5
I0
sg17
I1
sg18
I1
sg3
I0
sg6
I0
sg7
I0
sg13
I0
sg15
I0
sg14
I0
sg10
I0
sg11
I0
sg4
I0
sg22
I1
sg9
I0
ssS'ebolson'
p129
(dp130
g19
I1
sg8
I1
sg21
I1
sg16
I0
sg20
I1
sg12
I0
sg5
I1
sg17
I1
sg18
I1
sg3
I0
sg6
I1
sg7
I1
sg13
I0
sg15
I0
sg14
I0
sg10
I1
sg11
I0
sg4
I0
sg22
I1
sg9
I1
ssS'michjc'
p131
(dp132
g19
I0
sg8
I1
sg21
I0
sg16
I0
sg20
I0
sg12
I1
sg5
I0
sg17
I0
sg18
I0
sg3
I0
sg6
I0
sg7
I1
sg13
I0
sg15
I0
sg14
I0
sg10
I1
sg11
I1
sg4
I0
sg22
I0
sg9
I1
ssS'mozafari'
p133
(dp134
g19
I0
sg8
I0
sg21
I0
sg16
I0
sg20
I0
sg12
I0
sg5
I0
sg17
I0
sg18
I0
sg3
I0
sg6
I0
sg7
I0
sg13
I0
sg15
I0
sg14
I0
sg10
I0
sg11
I0
sg4
I0
sg22
I0
sg9
I0
ssS'kjc'
p135
(dp136
g19
I0
sg8
I1
sg21
I0
sg16
I0
sg20
I0
sg12
I1
sg5
I1
sg17
I0
sg18
I0
sg3
I0
sg6
I1
sg7
I1
sg13
I0
sg15
I0
sg14
I0
sg10
I1
sg11
I1
sg4
I0
sg22
I0
sg9
I1
ssS'zhs'
p137
(dp138
g27
I0
sg28
I0
sg29
I0
sg30
I0
sg31
I0
sg32
I0
sg33
I0
sg34
I0
sg35
I0
sg36
I0
sg37
I0
sg38
I0
sg39
I0
sg40
I0
sg41
I0
sg42
I0
sg43
I0
sg44
I0
sg45
I0
sg46
I0
ssS'pmchen'
p139
(dp140
g19
I1
sg8
I0
sg21
I1
sg16
I1
sg20
I1
sg12
I0
sg5
I0
sg17
I1
sg18
I1
sg3
I0
sg6
I0
sg7
I0
sg13
I0
sg15
I1
sg14
I0
sg10
I0
sg11
I0
sg4
I0
sg22
I1
sg9
I0
ssS'durfee'
p141
(dp142
g19
I1
sg8
I1
sg21
I0
sg16
I1
sg20
I1
sg12
I0
sg5
I0
sg17
I1
sg18
I1
sg3
I1
sg6
I0
sg7
I1
sg13
I0
sg15
I1
sg14
I0
sg10
I0
sg11
I0
sg4
I1
sg22
I0
sg9
I0
ssS'prabal'
p143
(dp144
g19
I0
sg8
I0
sg21
I0
sg16
I0
sg20
I0
sg12
I0
sg5
I0
sg17
I0
sg18
I0
sg3
I0
sg6
I0
sg7
I0
sg13
I0
sg15
I0
sg14
I0
sg10
I0
sg11
I0
sg4
I0
sg22
I0
sg9
I0
ssS'austin'
p145
(dp146
g19
I0
sg8
I0
sg21
I0
sg16
I0
sg20
I0
sg12
I0
sg5
I0
sg17
I0
sg18
I0
sg3
I0
sg6
I0
sg7
I0
sg13
I0
sg15
I0
sg14
I0
sg10
I0
sg11
I0
sg4
I0
sg22
I0
sg9
I0
ssS'kuipers'
p147
(dp148
g19
I0
sg8
I1
sg21
I0
sg16
I0
sg20
I0
sg12
I0
sg5
I0
sg17
I0
sg18
I0
sg3
I1
sg6
I0
sg7
I1
sg13
I0
sg15
I0
sg14
I0
sg10
I0
sg11
I0
sg4
I1
sg22
I0
sg9
I0
ssS'twenisch'
p149
(dp150
g27
I0
sg28
I0
sg29
I0
sg30
I0
sg31
I0
sg32
I0
sg33
I0
sg34
I0
sg35
I0
sg36
I0
sg37
I0
sg38
I0
sg39
I0
sg40
I0
sg41
I0
sg42
I0
sg43
I0
sg44
I0
sg45
I0
sg46
I0
ssS'mingyan'
p151
(dp152
g27
I0
sg28
I0
sg29
I0
sg30
I0
sg31
I0
sg32
I0
sg33
I0
sg34
I0
sg35
I0
sg36
I0
sg37
I0
sg38
I0
sg39
I0
sg40
I0
sg41
I0
sg42
I0
sg43
I0
sg44
I0
sg45
I0
sg46
I0
ssS'ghw'
p153
(dp154
g19
I0
sg8
I1
sg21
I0
sg16
I0
sg20
I0
sg12
I0
sg5
I0
sg17
I0
sg18
I0
sg3
I1
sg6
I0
sg7
I1
sg13
I0
sg15
I0
sg14
I0
sg10
I0
sg11
I0
sg4
I1
sg22
I0
sg9
I0
ssS'ackerm'
p155
(dp156
g27
I0
sg28
I0
sg29
I0
sg30
I0
sg31
I0
sg32
I0
sg33
I0
sg34
I0
sg35
I0
sg36
I0
sg37
I0
sg38
I0
sg39
I0
sg40
I0
sg41
I0
sg42
I0
sg43
I0
sg44
I0
sg45
I0
sg46
I0
ssS'imarkov'
p157
(dp158
g27
I0
sg28
I0
sg29
I0
sg30
I0
sg31
I0
sg32
I0
sg33
I0
sg34
I0
sg35
I0
sg36
I0
sg37
I0
sg38
I0
sg39
I0
sg40
I0
sg41
I0
sg42
I0
sg43
I0
sg44
I0
sg45
I0
sg46
I0
ssS'wellman'
p159
(dp160
g19
I0
sg8
I1
sg21
I0
sg16
I0
sg20
I0
sg12
I1
sg5
I0
sg17
I0
sg18
I0
sg3
I1
sg6
I0
sg7
I1
sg13
I0
sg15
I0
sg14
I0
sg10
I1
sg11
I1
sg4
I1
sg22
I0
sg9
I1
ssS'mahlke'
p161
(dp162
g19
I0
sg8
I0
sg21
I0
sg16
I1
sg20
I0
sg12
I1
sg5
I1
sg17
I1
sg18
I1
sg3
I0
sg6
I1
sg7
I0
sg13
I1
sg15
I1
sg14
I1
sg10
I1
sg11
I1
sg4
I0
sg22
I0
sg9
I1
ssS'tnm'
p163
(dp164
g19
I0
sg8
I0
sg21
I0
sg16
I0
sg20
I0
sg12
I0
sg5
I0
sg17
I0
sg18
I0
sg3
I0
sg6
I0
sg7
I0
sg13
I0
sg15
I0
sg14
I0
sg10
I0
sg11
I0
sg4
I0
sg22
I0
sg9
I0
ssS'shiyy'
p165
(dp166
g19
I0
sg8
I1
sg21
I0
sg16
I1
sg20
I0
sg12
I1
sg5
I1
sg17
I0
sg18
I0
sg3
I0
sg6
I1
sg7
I1
sg13
I1
sg15
I1
sg14
I1
sg10
I1
sg11
I1
sg4
I0
sg22
I0
sg9
I1
ssS'radev'
p167
(dp168
g19
I1
sg8
I1
sg21
I1
sg16
I1
sg20
I1
sg12
I1
sg5
I0
sg17
I1
sg18
I1
sg3
I0
sg6
I0
sg7
I1
sg13
I1
sg15
I1
sg14
I1
sg10
I1
sg11
I1
sg4
I0
sg22
I1
sg9
I1
ssS'jcpatt'
p169
(dp170
g27
I0
sg28
I0
sg29
I0
sg30
I0
sg31
I0
sg32
I0
sg33
I0
sg34
I0
sg35
I0
sg36
I0
sg37
I0
sg38
I0
sg39
I0
sg40
I0
sg41
I0
sg42
I0
sg43
I0
sg44
I0
sg45
I0
sg46
I0
sssS'uniqnames'
p171
c__builtin__
set
p172
((lp173
g25
ag47
ag167
ag49
ag51
ag53
ag55
ag57
ag59
ag61
ag63
ag65
ag89
ag69
ag71
ag73
ag129
ag75
ag77
ag79
ag81
ag83
ag87
ag123
ag91
ag93
ag95
ag97
ag99
ag101
ag103
ag135
ag107
ag109
ag111
ag113
ag115
ag117
ag119
ag121
ag67
ag125
ag127
ag133
ag131
ag85
ag105
ag137
ag139
ag141
ag143
ag147
ag149
ag151
ag153
ag155
ag157
ag159
ag161
ag163
ag165
ag145
ag169
atp174
Rp175
sS'student_rankings'
p176
(dp177
S'Yiping Kang <ypkang@umich.edu>'
p178
(lp179
g113
ag49
ag149
ag161
ag55
ag163
asS'Andrew Hassevoort <ahassevoort@gmail.com>'
p180
(lp181
g167
ag119
asS'Vaspol Ruamviboonsuk <vaspol@uw.edu>'
p182
(lp183
g131
ag89
ag155
asS'Carlo del Mundo <cdel@vt.edu>'
p184
(lp185
g161
ag49
ag149
ag121
ag91
ag55
ag113
asS'John Kolb <kolb0128@umn.edu>'
p186
(lp187
g57
ag53
ag133
ag65
asS'Parker Hill <parker.hill@modemlinks.com>'
p188
(lp189
g113
ag145
ag49
ag161
ag149
asS'Ruben Villegas <ruben.e.villegas@knights.ucf.edu>'
p190
(lp191
g71
ag77
ag103
ag95
ag167
asS'Shibamouli Lahiri <shibamoulilahiri@gmail.com>'
p192
(lp193
g95
ag147
asS'Travis Dick <tdick@ualberta.ca>'
p194
(lp195
g119
ag59
ag47
ag129
ag141
ag71
ag167
asS'Gunnar Sigurdsson <gasigurdsson@gmail.com>'
p196
(lp197
g71
ag129
ag147
ag167
ag119
asS'Sarah Seko <sarah.seko@students.olin.edu>'
p198
(lp199
g129
ag77
ag85
ag167
asS'Tim Lewis <timothy.lewis@hope.edu>'
p200
(lp201
g107
ag121
ag59
ag125
ag135
ag99
ag159
asS'Lynn Garrett <lynngarrett@uchicago.edu>'
p202
(lp203
g141
ag119
ag71
ag103
ag121
ag85
ag167
asS'Noam Brown <noam.brown@gmail.com>'
p204
(lp205
g159
ag59
ag119
ag47
ag95
ag121
ag167
asS'Zakaria Aldeneh <zakaria.aldeneh@gmail.com>'
p206
(lp207
g71
ag131
ag89
ag59
ag95
ag65
asS'Naomi Schurr <nschurr@mit.edu>'
p208
(lp209
g85
ag71
ag167
asS'John Hessel <jmhessel@gmail.com>'
p210
(lp211
g71
ag95
ag77
ag129
ag119
ag59
ag167
asS'Brandon Amos <bdamos@vt.edu>'
p212
(lp213
g65
ag51
ag67
ag121
ag71
ag113
asS'Yi-Ching Chiu <anniechiu92@gmail.com>'
p214
(lp215
g79
ag65
ag61
ag25
ag115
asS'Kiron Lebeck <kiron.lebeck@gmail.com>'
p216
(lp217
g67
ag65
ag97
ag139
ag57
ag113
asS'Xudong Liu <xudongliu09@gmail.com>'
p218
(lp219
g85
ag119
asS'Rachel Coston <rcoston@vt.edu>'
p220
(lp221
g85
ag167
ag119
asS'Mason Wright <mason.d.wright@vanderbilt.edu>'
p222
(lp223
g159
ag119
ag71
ag59
ag121
ag167
asS'Kevin Eykholt <kheykholt@gmail.com>'
p224
(lp225
g79
ag25
ag139
ag65
asS'Amanda Bower <amandarg@umich.edu>'
p226
(lp227
g121
ag125
ag119
ag107
ag135
ag159
asS'Amy Becker <amariah.becker@gmail.com>'
p228
(lp229
g99
ag121
ag107
ag157
ag135
asS'Dong-hyeon Park <dhpark@hmc.edu>'
p230
(lp231
g145
ag105
ag161
ag163
ag55
ag91
ag49
asS'Yifan Ge <ygg001@bucknell.edu>'
p232
(lp233
g145
ag105
ag49
ag91
ag161
ag121
ag55
asS'Harry Kalodner <harry.kalodner@gmail.com>'
p234
(lp235
g67
ag97
ag139
ag65
asS'Benjamin Mehne <bmehne@gmail.com>'
p236
(lp237
g145
ag97
ag113
asS'Dominik Moritz <domoritz@gmail.com>'
p238
(lp239
g133
ag131
ag89
ag119
ag71
ag141
asS'Zhongjun Jin <markjin1990@gmail.com>'
p240
(lp241
g65
ag131
ag79
asS'Chris Baik <cjbaik@umich.edu>'
p242
(lp243
g133
ag89
ag131
asS'Daming Chen <d.c.ddcc@gmail.com>'
p244
(lp245
g67
ag97
asS'William Sullivan <507 Colebrook River Road, Tolland MA>'
p246
(lp247
g109
ag121
ag141
ag55
asS'Ziyun Li <liziyun@umich.edu>'
p248
(lp249
g161
ass.
